; Function Attrs: nofree norecurse nosync nounwind memory(argmem: read) uwtable
define range(i32 0, -1) i32 @st__strhash(ptr noundef readonly captures(none) %0, i32 noundef %1) local_unnamed_addr #6 {
  %3 = load i8, ptr %0, align 1, !tbaa !56
  %.not7 = icmp eq i8 %3, 0
  br i1 %.not7, label %._crit_edge, label %.lr.ph

.lr.ph:                                           ; preds = %2, %.lr.ph
  %4 = phi i8 [ %9, %.lr.ph ], [ %3, %2 ]
  %.09 = phi i32 [ %8, %.lr.ph ], [ 0, %2 ]
  %.058 = phi ptr [ %6, %.lr.ph ], [ %0, %2 ]
  %5 = zext i8 %4 to i32
  %6 = getelementptr inbounds nuw i8, ptr %.058, i64 1
  %7 = mul i32 %.09, 997
  %8 = add i32 %7, %5
  %9 = load i8, ptr %6, align 1, !tbaa !56
  %.not = icmp eq i8 %9, 0
  br i1 %.not, label %._crit_edge, label %.lr.ph, !llvm.loop !57

._crit_edge:                                      ; preds = %.lr.ph, %2
  %.0.lcssa = phi i32 [ 0, %2 ], [ %8, %.lr.ph ]
  %10 = urem i32 %.0.lcssa, %1
  ret i32 %10
}